; Function Attrs: mustprogress uwtable
define noundef range(i64 -60, 1) i64 @_ZN11duckdb_zstd36ZSTD_initCStream_usingCDict_advancedEPNS_11ZSTD_CCtx_sEPKNS_12ZSTD_CDict_sENS_20ZSTD_frameParametersEy(ptr noundef captures(none) initializes((48, 60), (760, 768), (3608, 3612), (3664, 3688), (3696, 3728)) %0, ptr noundef %1, i64 %2, i32 %3, i64 noundef %4) local_unnamed_addr #2 {
_ZN11duckdb_zstd27ZSTD_CCtx_setPledgedSrcSizeEPNS_11ZSTD_CCtx_sEy.exit:
  %5 = getelementptr inbounds nuw i8, ptr %0, i64 3608
  store i32 0, ptr %5, align 8, !tbaa !99
  %6 = getelementptr inbounds nuw i8, ptr %0, i64 760
  %7 = add i64 %4, 1
  store i64 %7, ptr %6, align 8, !tbaa !136
  %8 = getelementptr inbounds nuw i8, ptr %0, i64 48
  store i64 %2, ptr %8, align 8
  %.sroa.215.0..sroa_idx = getelementptr inbounds nuw i8, ptr %0, i64 56
  store i32 %3, ptr %.sroa.215.0..sroa_idx, align 8, !tbaa !62
  tail call fastcc void @_ZN11duckdb_zstdL18ZSTD_clearAllDictsEPNS_11ZSTD_CCtx_sE(ptr noundef nonnull %0)
  %9 = getelementptr inbounds nuw i8, ptr %0, i64 3696
  store ptr %1, ptr %9, align 8, !tbaa !129
  ret i64 0
}